ccopy_reg
_reconstructor
p1
(csklearn.feature_extraction.text
TfidfVectorizer
p2
c__builtin__
object
p3
NtRp4
(dp5
S'decode_error'
p6
Vstrict
p7
sS'lowercase'
p8
I01
sS'stop_words'
p9
S'english'
p10
sS'vocabulary'
p11
NsS'tokenizer'
p12
ctfidf
tokenize
p13
sS'encoding'
p14
Vutf-8
p15
sS'token_pattern'
p16
V(?u)\u005cb\u005cw\u005cw+\u005cb
p17
sS'max_df'
p18
F1
sS'fixed_vocabulary_'
p19
I00
sS'analyzer'
p20
Vword
p21
sS'vocabulary_'
p22
(dp23
S'chandigarh'
p24
cnumpy.core.multiarray
scalar
p25
(cnumpy
dtype
p26
(S'i8'
I0
I1
tRp27
(I3
S'<'
NNNI-1
I-1
I0
tbS'\x01\x00\x00\x00\x00\x00\x00\x00'
tRp28
sS'pradesh'
p29
g25
(g27
S'\x05\x00\x00\x00\x00\x00\x00\x00'
tRp30
sS'madhya'
p31
g25
(g27
S'\x02\x00\x00\x00\x00\x00\x00\x00'
tRp32
sS'western'
p33
g25
(g27
S'\x07\x00\x00\x00\x00\x00\x00\x00'
tRp34
sS'cape'
p35
g25
(g27
S'\x00\x00\x00\x00\x00\x00\x00\x00'
tRp36
sS'maharashtra'
p37
g25
(g27
S'\x03\x00\x00\x00\x00\x00\x00\x00'
tRp38
sS'tamil'
p39
g25
(g27
S'\x06\x00\x00\x00\x00\x00\x00\x00'
tRp40
sS'nadu'
p41
g25
(g27
S'\x04\x00\x00\x00\x00\x00\x00\x00'
tRp42
ssS'binary'
p43
I00
sS'ngram_range'
p44
(I1
I1
tp45
sS'preprocessor'
p46
NsS'min_df'
p47
I1
sS'max_features'
p48
I5000
sS'input'
p49
Vcontent
p50
sS'_tfidf'
p51
g1
(csklearn.feature_extraction.text
TfidfTransformer
p52
g3
NtRp53
(dp54
S'use_idf'
p55
I01
sS'smooth_idf'
p56
I01
sS'sublinear_tf'
p57
I00
sS'norm'
p58
Vl2
p59
sS'_idf_diag'
p60
g1
(cscipy.sparse.dia
dia_matrix
p61
g3
NtRp62
(dp63
S'data'
p64
cnumpy.core.multiarray
_reconstruct
p65
(cnumpy
ndarray
p66
(I0
tS'b'
tRp67
(I1
(I1
I8
tg26
(S'f8'
I0
I1
tRp68
(I3
S'<'
NNNI-1
I-1
I0
tbI00
S'\xb0\x9eZ\x97\xa8\x05\x02@\xb0\x9eZ\x97\xa8\x05\x02@MW\x853\x88\x8e\xfd?\xb0\x9eZ\x97\xa8\x05\x02@\xb0\x9eZ\x97\xa8\x05\x02@MW\x853\x88\x8e\xfd?\xb0\x9eZ\x97\xa8\x05\x02@\xb0\x9eZ\x97\xa8\x05\x02@'
tbsS'maxprint'
p69
I50
sS'_shape'
p70
(I8
I8
tp71
sS'offsets'
p72
g65
(g66
(I0
tS'b'
tRp73
(I1
(I1
tg26
(S'i4'
I0
I1
tRp74
(I3
S'<'
NNNI-1
I-1
I0
tbI00
S'\x00\x00\x00\x00'
tbsbsbsS'dtype'
p75
cnumpy
int64
p76
sS'stop_words_'
p77
c__builtin__
set
p78
((ltRp79
sS'strip_accents'
p80
Nsb.